target datalayout = "e-m:e-p270:32:32-p271:32:32-p272:64:64-i64:64-i128:128-f80:128-n8:16:32:64-S128"
target triple = "x86_64-pc-linux-gnu"

%"class.ceres::internal::DenseSparseMatrix" = type { %"class.ceres::internal::SparseMatrix", %"class.Eigen::Matrix" }
%"class.ceres::internal::SparseMatrix" = type { %"class.ceres::internal::LinearOperator" }
%"class.ceres::internal::LinearOperator" = type { ptr }
%"class.Eigen::Matrix" = type { %"class.Eigen::PlainObjectBase" }
%"class.Eigen::PlainObjectBase" = type { %"class.Eigen::DenseStorage" }
%"class.Eigen::DenseStorage" = type { ptr, i64, i64 }

; Function Attrs: inlinehint mustprogress nounwind uwtable
define linkonce_odr void @_ZSt9__fill_a1IPddEN9__gnu_cxx11__enable_ifIXsr11__is_scalarIT0_EE7__valueEvE6__typeET_S6_RKS3_(ptr noundef %0, ptr noundef %1, ptr noundef nonnull align 8 dereferenceable(8) %2) #4 comdat {
  %4 = alloca ptr, align 8
  %5 = alloca ptr, align 8
  %6 = alloca ptr, align 8
  %7 = alloca double, align 8
  store ptr %0, ptr %4, align 8, !tbaa !28
  store ptr %1, ptr %5, align 8, !tbaa !28
  store ptr %2, ptr %6, align 8, !tbaa !28
  call void @llvm.lifetime.start.p0(i64 8, ptr %7) #23
  %8 = load ptr, ptr %6, align 8, !tbaa !28
  %9 = load double, ptr %8, align 8, !tbaa !30
  store double %9, ptr %7, align 8, !tbaa !30
  br label %10

10:                                               ; preds = %17, %3
  %11 = load ptr, ptr %4, align 8, !tbaa !28
  %12 = load ptr, ptr %5, align 8, !tbaa !28
  %13 = icmp ne ptr %11, %12
  br i1 %13, label %14, label %20

14:                                               ; preds = %10
  %15 = load double, ptr %7, align 8, !tbaa !30
  %16 = load ptr, ptr %4, align 8, !tbaa !28
  store double %15, ptr %16, align 8, !tbaa !30
  br label %17

17:                                               ; preds = %14
  %18 = load ptr, ptr %4, align 8, !tbaa !28
  %19 = getelementptr inbounds nuw double, ptr %18, i32 1
  store ptr %19, ptr %4, align 8, !tbaa !28
  br label %10, !llvm.loop !183

20:                                               ; preds = %10
  call void @llvm.lifetime.end.p0(i64 8, ptr %7) #23
  ret void
}

; Function Attrs: inlinehint mustprogress uwtable
define linkonce_odr void @_ZSt8__fill_aIPddEvT_S1_RKT0_(ptr noundef %0, ptr noundef %1, ptr noundef nonnull align 8 dereferenceable(8) %2) #5 comdat {
  %4 = alloca ptr, align 8
  %5 = alloca ptr, align 8
  %6 = alloca ptr, align 8
  store ptr %0, ptr %4, align 8, !tbaa !28
  store ptr %1, ptr %5, align 8, !tbaa !28
  store ptr %2, ptr %6, align 8, !tbaa !28
  %7 = load ptr, ptr %4, align 8, !tbaa !28
  %8 = load ptr, ptr %5, align 8, !tbaa !28
  %9 = load ptr, ptr %6, align 8, !tbaa !28
  call void @_ZSt9__fill_a1IPddEN9__gnu_cxx11__enable_ifIXsr11__is_scalarIT0_EE7__valueEvE6__typeET_S6_RKS3_(ptr noundef %7, ptr noundef %8, ptr noundef nonnull align 8 dereferenceable(8) %9)
  ret void
}

; Function Attrs: mustprogress nounwind uwtable
define linkonce_odr hidden noundef ptr @_ZNK5Eigen12DenseStorageIdLin1ELin1ELin1ELi1EE4dataEv(ptr noundef nonnull align 8 dereferenceable(24) %0) #1 comdat align 2 {
  %2 = alloca ptr, align 8
  store ptr %0, ptr %2, align 8, !tbaa !139
  %3 = load ptr, ptr %2, align 8
  %4 = getelementptr inbounds nuw %"class.Eigen::DenseStorage", ptr %3, i32 0, i32 0
  %5 = load ptr, ptr %4, align 8, !tbaa !141
  ret ptr %5
}

; Function Attrs: inlinehint mustprogress uwtable
define linkonce_odr noundef ptr @_ZSt10__fill_n_aIPdidET_S1_T0_RKT1_St26random_access_iterator_tag(ptr noundef %0, i32 noundef %1, ptr noundef nonnull align 8 dereferenceable(8) %2) #5 comdat {
  %4 = alloca ptr, align 8
  %5 = alloca ptr, align 8
  %6 = alloca i32, align 4
  %7 = alloca ptr, align 8
  store ptr %0, ptr %5, align 8, !tbaa !28
  store i32 %1, ptr %6, align 4, !tbaa !16
  store ptr %2, ptr %7, align 8, !tbaa !28
  %8 = load i32, ptr %6, align 4, !tbaa !16
  %9 = icmp sle i32 %8, 0
  br i1 %9, label %10, label %12

10:                                               ; preds = %3
  %11 = load ptr, ptr %5, align 8, !tbaa !28
  store ptr %11, ptr %4, align 8
  br label %23

12:                                               ; preds = %3
  %13 = load ptr, ptr %5, align 8, !tbaa !28
  %14 = load ptr, ptr %5, align 8, !tbaa !28
  %15 = load i32, ptr %6, align 4, !tbaa !16
  %16 = sext i32 %15 to i64
  %17 = getelementptr inbounds double, ptr %14, i64 %16
  %18 = load ptr, ptr %7, align 8, !tbaa !28
  call void @_ZSt8__fill_aIPddEvT_S1_RKT0_(ptr noundef %13, ptr noundef %17, ptr noundef nonnull align 8 dereferenceable(8) %18)
  %19 = load ptr, ptr %5, align 8, !tbaa !28
  %20 = load i32, ptr %6, align 4, !tbaa !16
  %21 = sext i32 %20 to i64
  %22 = getelementptr inbounds double, ptr %19, i64 %21
  store ptr %22, ptr %4, align 8
  br label %23

23:                                               ; preds = %12, %10
  %24 = load ptr, ptr %4, align 8
  ret ptr %24
}

; Function Attrs: inlinehint mustprogress nounwind uwtable
define linkonce_odr void @_ZSt19__iterator_categoryIPdENSt15iterator_traitsIT_E17iterator_categoryERKS2_(ptr noundef nonnull align 8 dereferenceable(8) %0) #4 comdat {
  %2 = alloca ptr, align 8
  store ptr %0, ptr %2, align 8, !tbaa !181
  ret void
}

; Function Attrs: inlinehint mustprogress nounwind uwtable
define linkonce_odr noundef i32 @_ZSt17__size_to_integeri(i32 noundef %0) #4 comdat {
  %2 = alloca i32, align 4
  store i32 %0, ptr %2, align 4, !tbaa !16
  %3 = load i32, ptr %2, align 4, !tbaa !16
  ret i32 %3
}

; Function Attrs: mustprogress nounwind uwtable
define linkonce_odr hidden noundef i64 @_ZNK5Eigen12DenseStorageIdLin1ELin1ELin1ELi1EE4colsEv(ptr noundef nonnull align 8 dereferenceable(24) %0) #1 comdat align 2 {
  %2 = alloca ptr, align 8
  store ptr %0, ptr %2, align 8, !tbaa !139
  %3 = load ptr, ptr %2, align 8
  %4 = getelementptr inbounds nuw %"class.Eigen::DenseStorage", ptr %3, i32 0, i32 2
  %5 = load i64, ptr %4, align 8, !tbaa !144
  ret i64 %5
}

; Function Attrs: mustprogress nounwind uwtable
define linkonce_odr hidden noundef i64 @_ZNK5Eigen12DenseStorageIdLin1ELin1ELin1ELi1EE4rowsEv(ptr noundef nonnull align 8 dereferenceable(24) %0) #1 comdat align 2 {
  %2 = alloca ptr, align 8
  store ptr %0, ptr %2, align 8, !tbaa !139
  %3 = load ptr, ptr %2, align 8
  %4 = getelementptr inbounds nuw %"class.Eigen::DenseStorage", ptr %3, i32 0, i32 1
  %5 = load i64, ptr %4, align 8, !tbaa !143
  ret i64 %5
}

; Function Attrs: inlinehint mustprogress uwtable
define linkonce_odr hidden noundef ptr @_ZNK5Eigen15PlainObjectBaseINS_6MatrixIdLin1ELin1ELi1ELin1ELin1EEEE4dataEv(ptr noundef nonnull align 8 dereferenceable(24) %0) #5 comdat align 2 {
  %2 = alloca ptr, align 8
  store ptr %0, ptr %2, align 8, !tbaa !58
  %3 = load ptr, ptr %2, align 8
  %4 = getelementptr inbounds nuw %"class.Eigen::PlainObjectBase", ptr %3, i32 0, i32 0
  %5 = call noundef ptr @_ZNK5Eigen12DenseStorageIdLin1ELin1ELin1ELi1EE4dataEv(ptr noundef nonnull align 8 dereferenceable(24) %4)
  ret ptr %5
}

; Function Attrs: inlinehint mustprogress uwtable
define linkonce_odr noundef ptr @_ZSt6fill_nIPdidET_S1_T0_RKT1_(ptr noundef %0, i32 noundef %1, ptr noundef nonnull align 8 dereferenceable(8) %2) #5 comdat {
  %4 = alloca ptr, align 8
  %5 = alloca i32, align 4
  %6 = alloca ptr, align 8
  store ptr %0, ptr %4, align 8, !tbaa !28
  store i32 %1, ptr %5, align 4, !tbaa !16
  store ptr %2, ptr %6, align 8, !tbaa !28
  %7 = load ptr, ptr %4, align 8, !tbaa !28
  %8 = load i32, ptr %5, align 4, !tbaa !16
  %9 = call noundef i32 @_ZSt17__size_to_integeri(i32 noundef %8)
  %10 = load ptr, ptr %6, align 8, !tbaa !28
  call void @_ZSt19__iterator_categoryIPdENSt15iterator_traitsIT_E17iterator_categoryERKS2_(ptr noundef nonnull align 8 dereferenceable(8) %4)
  %11 = call noundef ptr @_ZSt10__fill_n_aIPdidET_S1_T0_RKT1_St26random_access_iterator_tag(ptr noundef %7, i32 noundef %9, ptr noundef nonnull align 8 dereferenceable(8) %10)
  ret ptr %11
}

; Function Attrs: inlinehint mustprogress nounwind uwtable
define linkonce_odr hidden noundef i64 @_ZNK5Eigen15PlainObjectBaseINS_6MatrixIdLin1ELin1ELi1ELin1ELin1EEEE4colsEv(ptr noundef nonnull align 8 dereferenceable(24) %0) #4 comdat align 2 {
  %2 = alloca ptr, align 8
  store ptr %0, ptr %2, align 8, !tbaa !58
  %3 = load ptr, ptr %2, align 8
  %4 = getelementptr inbounds nuw %"class.Eigen::PlainObjectBase", ptr %3, i32 0, i32 0
  %5 = call noundef i64 @_ZNK5Eigen12DenseStorageIdLin1ELin1ELin1ELi1EE4colsEv(ptr noundef nonnull align 8 dereferenceable(24) %4) #23
  ret i64 %5
}

; Function Attrs: inlinehint mustprogress nounwind uwtable
define linkonce_odr hidden noundef i64 @_ZNK5Eigen15PlainObjectBaseINS_6MatrixIdLin1ELin1ELi1ELin1ELin1EEEE4rowsEv(ptr noundef nonnull align 8 dereferenceable(24) %0) #4 comdat align 2 {
  %2 = alloca ptr, align 8
  store ptr %0, ptr %2, align 8, !tbaa !58
  %3 = load ptr, ptr %2, align 8
  %4 = getelementptr inbounds nuw %"class.Eigen::PlainObjectBase", ptr %3, i32 0, i32 0
  %5 = call noundef i64 @_ZNK5Eigen12DenseStorageIdLin1ELin1ELin1ELi1EE4rowsEv(ptr noundef nonnull align 8 dereferenceable(24) %4) #23
  ret i64 %5
}

; Function Attrs: mustprogress uwtable
define hidden void @_ZNK5ceres8internal17DenseSparseMatrix17SquaredColumnNormEPd(ptr noundef nonnull align 8 dereferenceable(32) %0, ptr noundef %1) unnamed_addr #3 align 2 {
  %3 = alloca ptr, align 8
  %4 = alloca ptr, align 8
  %5 = alloca i32, align 4
  %6 = alloca i32, align 4
  %7 = alloca double, align 8
  %8 = alloca ptr, align 8
  %9 = alloca i32, align 4
  %10 = alloca i32, align 4
  %11 = alloca i32, align 4
  store ptr %0, ptr %3, align 8, !tbaa !14
  store ptr %1, ptr %4, align 8, !tbaa !28
  %12 = load ptr, ptr %3, align 8
  call void @llvm.lifetime.start.p0(i64 4, ptr %5) #23
  %13 = getelementptr inbounds nuw %"class.ceres::internal::DenseSparseMatrix", ptr %12, i32 0, i32 1
  %14 = call noundef i64 @_ZNK5Eigen15PlainObjectBaseINS_6MatrixIdLin1ELin1ELi1ELin1ELin1EEEE4rowsEv(ptr noundef nonnull align 8 dereferenceable(24) %13) #23
  %15 = trunc i64 %14 to i32
  store i32 %15, ptr %5, align 4, !tbaa !16
  call void @llvm.lifetime.start.p0(i64 4, ptr %6) #23
  %16 = getelementptr inbounds nuw %"class.ceres::internal::DenseSparseMatrix", ptr %12, i32 0, i32 1
  %17 = call noundef i64 @_ZNK5Eigen15PlainObjectBaseINS_6MatrixIdLin1ELin1ELi1ELin1ELin1EEEE4colsEv(ptr noundef nonnull align 8 dereferenceable(24) %16) #23
  %18 = trunc i64 %17 to i32
  store i32 %18, ptr %6, align 4, !tbaa !16
  %19 = load ptr, ptr %4, align 8, !tbaa !28
  %20 = load i32, ptr %6, align 4, !tbaa !16
  call void @llvm.lifetime.start.p0(i64 8, ptr %7) #23
  store double 0.000000e+00, ptr %7, align 8, !tbaa !30
  %21 = call noundef ptr @_ZSt6fill_nIPdidET_S1_T0_RKT1_(ptr noundef %19, i32 noundef %20, ptr noundef nonnull align 8 dereferenceable(8) %7)
  call void @llvm.lifetime.end.p0(i64 8, ptr %7) #23
  call void @llvm.lifetime.start.p0(i64 8, ptr %8) #23
  %22 = getelementptr inbounds nuw %"class.ceres::internal::DenseSparseMatrix", ptr %12, i32 0, i32 1
  %23 = call noundef ptr @_ZNK5Eigen15PlainObjectBaseINS_6MatrixIdLin1ELin1ELi1ELin1ELin1EEEE4dataEv(ptr noundef nonnull align 8 dereferenceable(24) %22)
  store ptr %23, ptr %8, align 8, !tbaa !28
  call void @llvm.lifetime.start.p0(i64 4, ptr %9) #23
  store i32 0, ptr %9, align 4, !tbaa !16
  br label %24

24:                                               ; preds = %52, %2
  %25 = load i32, ptr %9, align 4, !tbaa !16
  %26 = load i32, ptr %5, align 4, !tbaa !16
  %27 = icmp slt i32 %25, %26
  br i1 %27, label %29, label %28

28:                                               ; preds = %24
  store i32 2, ptr %10, align 4
  call void @llvm.lifetime.end.p0(i64 4, ptr %9) #23
  br label %55

29:                                               ; preds = %24
  call void @llvm.lifetime.start.p0(i64 4, ptr %11) #23
  store i32 0, ptr %11, align 4, !tbaa !16
  br label %30

30:                                               ; preds = %46, %29
  %31 = load i32, ptr %11, align 4, !tbaa !16
  %32 = load i32, ptr %6, align 4, !tbaa !16
  %33 = icmp slt i32 %31, %32
  br i1 %33, label %35, label %34

34:                                               ; preds = %30
  store i32 5, ptr %10, align 4
  call void @llvm.lifetime.end.p0(i64 4, ptr %11) #23
  br label %51

35:                                               ; preds = %30
  %36 = load ptr, ptr %8, align 8, !tbaa !28
  %37 = load double, ptr %36, align 8, !tbaa !30
  %38 = load ptr, ptr %8, align 8, !tbaa !28
  %39 = load double, ptr %38, align 8, !tbaa !30
  %40 = load ptr, ptr %4, align 8, !tbaa !28
  %41 = load i32, ptr %11, align 4, !tbaa !16
  %42 = sext i32 %41 to i64
  %43 = getelementptr inbounds double, ptr %40, i64 %42
  %44 = load double, ptr %43, align 8, !tbaa !30
  %45 = call double @llvm.fmuladd.f64(double %37, double %39, double %44)
  store double %45, ptr %43, align 8, !tbaa !30
  br label %46

46:                                               ; preds = %35
  %47 = load i32, ptr %11, align 4, !tbaa !16
  %48 = add nsw i32 %47, 1
  store i32 %48, ptr %11, align 4, !tbaa !16
  %49 = load ptr, ptr %8, align 8, !tbaa !28
  %50 = getelementptr inbounds nuw double, ptr %49, i32 1
  store ptr %50, ptr %8, align 8, !tbaa !28
  br label %30, !llvm.loop !84

51:                                               ; preds = %34
  br label %52

52:                                               ; preds = %51
  %53 = load i32, ptr %9, align 4, !tbaa !16
  %54 = add nsw i32 %53, 1
  store i32 %54, ptr %9, align 4, !tbaa !16
  br label %24, !llvm.loop !85

55:                                               ; preds = %28
  call void @llvm.lifetime.end.p0(i64 8, ptr %8) #23
  call void @llvm.lifetime.end.p0(i64 4, ptr %6) #23
  call void @llvm.lifetime.end.p0(i64 4, ptr %5) #23
  ret void
}