; Function Attrs: mustprogress nofree norecurse nosync nounwind memory(read, argmem: readwrite, inaccessiblemem: none) uwtable
define hidden void @_ZNK5ceres8internal17DenseSparseMatrix17SquaredColumnNormEPd(ptr noundef nonnull readonly align 8 captures(none) dereferenceable(32) %0, ptr noundef captures(none) %1) unnamed_addr #7 align 2 {
  %3 = getelementptr inbounds nuw i8, ptr %0, i64 8
  %4 = getelementptr inbounds nuw i8, ptr %0, i64 16
  %5 = load i64, ptr %4, align 8, !tbaa !31
  %6 = trunc i64 %5 to i32
  %7 = getelementptr inbounds nuw i8, ptr %0, i64 24
  %8 = load i64, ptr %7, align 8, !tbaa !32
  %9 = trunc i64 %8 to i32
  %10 = icmp slt i32 %9, 1
  br i1 %10, label %_ZSt6fill_nIPdidET_S1_T0_RKT1_.exit, label %_ZSt6fill_nIPdidET_S1_T0_RKT1_.exit.loopexit

_ZSt6fill_nIPdidET_S1_T0_RKT1_.exit.loopexit:     ; preds = %2
  %11 = shl i64 %8, 3
  %12 = and i64 %11, 17179869176
  tail call void @llvm.memset.p0.i64(ptr align 8 %1, i8 0, i64 %12, i1 false), !tbaa !33
  br label %_ZSt6fill_nIPdidET_S1_T0_RKT1_.exit

_ZSt6fill_nIPdidET_S1_T0_RKT1_.exit:              ; preds = %_ZSt6fill_nIPdidET_S1_T0_RKT1_.exit.loopexit, %2
  %13 = icmp sgt i32 %6, 0
  %14 = icmp sgt i32 %9, 0
  %or.cond = and i1 %13, %14
  br i1 %or.cond, label %.preheader.us.preheader, label %._crit_edge19

.preheader.us.preheader:                          ; preds = %_ZSt6fill_nIPdidET_S1_T0_RKT1_.exit
  %15 = load ptr, ptr %3, align 8, !tbaa !6
  %wide.trip.count = and i64 %8, 2147483647
  br label %.preheader.us

.preheader.us:                                    ; preds = %.preheader.us.preheader, %._crit_edge.us
  %.01318.us = phi i32 [ %22, %._crit_edge.us ], [ 0, %.preheader.us.preheader ]
  %.01417.us = phi ptr [ %21, %._crit_edge.us ], [ %15, %.preheader.us.preheader ]
  br label %16

16:                                               ; preds = %.preheader.us, %16
  %indvars.iv = phi i64 [ 0, %.preheader.us ], [ %indvars.iv.next, %16 ]
  %.115.us = phi ptr [ %.01417.us, %.preheader.us ], [ %21, %16 ]
  %17 = load double, ptr %.115.us, align 8, !tbaa !33
  %18 = getelementptr inbounds nuw double, ptr %1, i64 %indvars.iv
  %19 = load double, ptr %18, align 8, !tbaa !33
  %20 = tail call double @llvm.fmuladd.f64(double %17, double %17, double %19)
  store double %20, ptr %18, align 8, !tbaa !33
  %indvars.iv.next = add nuw nsw i64 %indvars.iv, 1
  %21 = getelementptr inbounds nuw i8, ptr %.115.us, i64 8
  %exitcond.not = icmp eq i64 %indvars.iv.next, %wide.trip.count
  br i1 %exitcond.not, label %._crit_edge.us, label %16, !llvm.loop !63

._crit_edge.us:                                   ; preds = %16
  %22 = add nuw nsw i32 %.01318.us, 1
  %exitcond22.not = icmp eq i32 %22, %6
  br i1 %exitcond22.not, label %._crit_edge19, label %.preheader.us, !llvm.loop !64

._crit_edge19:                                    ; preds = %._crit_edge.us, %_ZSt6fill_nIPdidET_S1_T0_RKT1_.exit
  ret void
}